; Function Attrs: mustprogress uwtable
define noundef zeroext i1 @_ZN32pxrInternal_v0_24__pxrReserved__25TfIsUtf8CodePointXidStartEj(i32 noundef %0) local_unnamed_addr #0 {
  %2 = tail call noundef nonnull align 8 dereferenceable(139264) ptr @_ZN32pxrInternal_v0_24__pxrReserved__28TfUnicodeGetXidStartFlagDataEv()
  %3 = icmp ult i32 %0, 1114112
  br i1 %3, label %4, label %_ZNK32pxrInternal_v0_24__pxrReserved__25TfUnicodeXidStartFlagData19IsXidStartCodePointEj.exit

4:                                                ; preds = %1
  %5 = zext nneg i32 %0 to i64
  %6 = lshr i64 %5, 6
  %7 = getelementptr inbounds [17408 x i64], ptr %2, i64 0, i64 %6
  %8 = load i64, ptr %7, align 8
  %9 = and i64 %5, 63
  %10 = shl nuw i64 1, %9
  %11 = and i64 %8, %10
  %12 = icmp ne i64 %11, 0
  br label %_ZNK32pxrInternal_v0_24__pxrReserved__25TfUnicodeXidStartFlagData19IsXidStartCodePointEj.exit

_ZNK32pxrInternal_v0_24__pxrReserved__25TfUnicodeXidStartFlagData19IsXidStartCodePointEj.exit: ; preds = %1, %4
  %13 = phi i1 [ %12, %4 ], [ false, %1 ]
  ret i1 %13
}